target datalayout = "e-m:e-p270:32:32-p271:32:32-p272:64:64-i64:64-i128:128-f80:128-n8:16:32:64-S128"
target triple = "x86_64-pc-linux-gnu"

%struct.buf_t = type { i32, ptr, i32, i32, i8, i8 }

@temp_kvs_buf = internal global ptr null, align 8
@temp_kvs_cnt = internal global i32 0, align 4
@temp_kvs_size = internal global i32 0, align 4
@.str = private unnamed_addr constant [6 x i8] c"kvs.c\00", align 1
@__func__.temp_kvs_merge = private unnamed_addr constant [15 x i8] c"temp_kvs_merge\00", align 1

; Function Attrs: nounwind uwtable
define dso_local i32 @temp_kvs_merge(ptr noundef %0) #0 {
  %2 = alloca i32, align 4
  %3 = alloca ptr, align 8
  %4 = alloca ptr, align 8
  %5 = alloca i32, align 4
  %6 = alloca i32, align 4
  %7 = alloca i32, align 4
  store ptr %0, ptr %3, align 8
  call void @llvm.lifetime.start.p0(i64 8, ptr %4) #7
  call void @llvm.lifetime.start.p0(i64 4, ptr %5) #7
  call void @llvm.lifetime.start.p0(i64 4, ptr %6) #7
  %8 = load ptr, ptr %3, align 8
  %9 = getelementptr inbounds nuw %struct.buf_t, ptr %8, i32 0, i32 2
  %10 = load i32, ptr %9, align 8
  %11 = load ptr, ptr %3, align 8
  %12 = getelementptr inbounds nuw %struct.buf_t, ptr %11, i32 0, i32 3
  %13 = load i32, ptr %12, align 4
  %14 = sub i32 %10, %13
  store i32 %14, ptr %6, align 4
  %15 = load i32, ptr %6, align 4
  %16 = icmp eq i32 %15, 0
  br i1 %16, label %17, label %18

17:                                               ; preds = %1
  store i32 0, ptr %2, align 4
  store i32 1, ptr %7, align 4
  br label %51

18:                                               ; preds = %1
  %19 = load ptr, ptr %3, align 8
  %20 = getelementptr inbounds nuw %struct.buf_t, ptr %19, i32 0, i32 1
  %21 = load ptr, ptr %20, align 8
  store ptr %21, ptr %4, align 8
  %22 = load ptr, ptr %3, align 8
  %23 = getelementptr inbounds nuw %struct.buf_t, ptr %22, i32 0, i32 3
  %24 = load i32, ptr %23, align 4
  store i32 %24, ptr %5, align 4
  %25 = load i32, ptr @temp_kvs_cnt, align 4
  %26 = load i32, ptr %6, align 4
  %27 = add i32 %25, %26
  %28 = load i32, ptr @temp_kvs_size, align 4
  %29 = icmp ugt i32 %27, %28
  br i1 %29, label %30, label %37

30:                                               ; preds = %18
  %31 = load i32, ptr %6, align 4
  %32 = load i32, ptr @temp_kvs_size, align 4
  %33 = add i32 %32, %31
  store i32 %33, ptr @temp_kvs_size, align 4
  %34 = load i32, ptr @temp_kvs_size, align 4
  %35 = sext i32 %34 to i64
  %36 = call ptr @slurm_xrecalloc(ptr noundef @temp_kvs_buf, i64 noundef 1, i64 noundef %35, i1 noundef zeroext true, i1 noundef zeroext false, ptr noundef @.str, i32 noundef 181, ptr noundef @__func__.temp_kvs_merge)
  br label %37

37:                                               ; preds = %30, %18
  %38 = load ptr, ptr @temp_kvs_buf, align 8
  %39 = load i32, ptr @temp_kvs_cnt, align 4
  %40 = sext i32 %39 to i64
  %41 = getelementptr inbounds i8, ptr %38, i64 %40
  %42 = load ptr, ptr %4, align 8
  %43 = load i32, ptr %5, align 4
  %44 = zext i32 %43 to i64
  %45 = getelementptr inbounds nuw i8, ptr %42, i64 %44
  %46 = load i32, ptr %6, align 4
  %47 = zext i32 %46 to i64
  call void @llvm.memcpy.p0.p0.i64(ptr align 1 %41, ptr align 1 %45, i64 %47, i1 false)
  %48 = load i32, ptr %6, align 4
  %49 = load i32, ptr @temp_kvs_cnt, align 4
  %50 = add i32 %49, %48
  store i32 %50, ptr @temp_kvs_cnt, align 4
  store i32 0, ptr %2, align 4
  store i32 1, ptr %7, align 4
  br label %51

51:                                               ; preds = %37, %17
  call void @llvm.lifetime.end.p0(i64 4, ptr %6) #7
  call void @llvm.lifetime.end.p0(i64 4, ptr %5) #7
  call void @llvm.lifetime.end.p0(i64 8, ptr %4) #7
  %52 = load i32, ptr %2, align 4
  ret i32 %52
}