; Function Attrs: nounwind uwtable
define dso_local noundef i32 @temp_kvs_merge(ptr noundef readonly captures(none) %0) local_unnamed_addr #0 {
  %2 = getelementptr inbounds nuw i8, ptr %0, i64 16
  %3 = load i32, ptr %2, align 8
  %4 = getelementptr inbounds nuw i8, ptr %0, i64 20
  %5 = load i32, ptr %4, align 4
  %6 = sub i32 %3, %5
  %7 = icmp eq i32 %3, %5
  br i1 %7, label %27, label %8

8:                                                ; preds = %1
  %9 = getelementptr inbounds nuw i8, ptr %0, i64 8
  %10 = load ptr, ptr %9, align 8
  %11 = load i32, ptr @temp_kvs_cnt, align 4
  %12 = add i32 %11, %6
  %13 = load i32, ptr @temp_kvs_size, align 4
  %14 = icmp ugt i32 %12, %13
  br i1 %14, label %15, label %19

15:                                               ; preds = %8
  %16 = add i32 %13, %6
  store i32 %16, ptr @temp_kvs_size, align 4
  %17 = sext i32 %16 to i64
  %18 = tail call ptr @slurm_xrecalloc(ptr noundef nonnull @temp_kvs_buf, i64 noundef 1, i64 noundef %17, i1 noundef zeroext true, i1 noundef zeroext false, ptr noundef nonnull @.str, i32 noundef 181, ptr noundef nonnull @__func__.temp_kvs_merge) #6
  %.pre = load i32, ptr @temp_kvs_cnt, align 4
  %.pre12 = add i32 %.pre, %6
  br label %19

19:                                               ; preds = %15, %8
  %.pre-phi = phi i32 [ %.pre12, %15 ], [ %12, %8 ]
  %20 = phi i32 [ %.pre, %15 ], [ %11, %8 ]
  %21 = load ptr, ptr @temp_kvs_buf, align 8
  %22 = sext i32 %20 to i64
  %23 = getelementptr inbounds i8, ptr %21, i64 %22
  %24 = zext i32 %5 to i64
  %25 = getelementptr inbounds nuw i8, ptr %10, i64 %24
  %26 = zext i32 %6 to i64
  tail call void @llvm.memcpy.p0.p0.i64(ptr align 1 %23, ptr align 1 %25, i64 %26, i1 false)
  store i32 %.pre-phi, ptr @temp_kvs_cnt, align 4
  br label %27

27:                                               ; preds = %1, %19
  ret i32 0
}